ccopy_reg
_reconstructor
p0
(cdedupe.datamodel
DataModel
p1
c__builtin__
dict
p2
(dp3
S'fields'
p4
(lp5
g0
(cdedupe.fieldclasses
CustomType
p6
c__builtin__
object
p7
Ntp8
Rp9
(dp10
S'name'
p11
S'(price: Custom, priceComparator)'
p12
sS'comparator'
p13
c__main__
priceComparator
p14
sS'weight'
p15
F1.878359317779541
sS'field'
p16
S'price'
p17
sS'has_missing'
p18
I01
sS'predicates'
p19
(lp20
sbag0
(cdedupe.fieldclasses
TextType
p21
g7
Ntp22
Rp23
(dp24
g11
S'(description: Text)'
p25
sg13
g0
(cdedupe.distance.cosine
CosineTextSimilarity
p26
g7
Ntp27
Rp28
(dp29
S'default_score'
p30
F1.0
sS'vectors'
p31
(dp32
sS'doc_freq'
p33
(dp34
sbsg15
F0.8299529552459717
sg16
S'description'
p35
sg18
I01
sg19
(lp36
g0
(cdedupe.predicates
SimplePredicate
p37
g7
Ntp38
Rp39
(dp40
S'__name__'
p41
S'(wholeFieldPredicate, description)'
p42
sS'func'
p43
cdedupe.predicates
wholeFieldPredicate
p44
sg16
g35
sbag0
(g37
g7
Ntp45
Rp46
(dp47
g41
S'(tokenFieldPredicate, description)'
p48
sg43
cdedupe.predicates
tokenFieldPredicate
p49
sg16
g35
sbag0
(g37
g7
Ntp50
Rp51
(dp52
g41
S'(firstTokenPredicate, description)'
p53
sg43
cdedupe.predicates
firstTokenPredicate
p54
sg16
g35
sbag0
(g37
g7
Ntp55
Rp56
(dp57
g41
S'(commonIntegerPredicate, description)'
p58
sg43
cdedupe.predicates
commonIntegerPredicate
p59
sg16
g35
sbag0
(g37
g7
Ntp60
Rp61
(dp62
g41
S'(nearIntegersPredicate, description)'
p63
sg43
cdedupe.predicates
nearIntegersPredicate
p64
sg16
g35
sbag0
(g37
g7
Ntp65
Rp66
(dp67
g41
S'(firstIntegerPredicate, description)'
p68
sg43
cdedupe.predicates
firstIntegerPredicate
p69
sg16
g35
sbag0
(g37
g7
Ntp70
Rp71
(dp72
g41
S'(sameThreeCharStartPredicate, description)'
p73
sg43
cdedupe.predicates
sameThreeCharStartPredicate
p74
sg16
g35
sbag0
(g37
g7
Ntp75
Rp76
(dp77
g41
S'(sameFiveCharStartPredicate, description)'
p78
sg43
cdedupe.predicates
sameFiveCharStartPredicate
p79
sg16
g35
sbag0
(g37
g7
Ntp80
Rp81
(dp82
g41
S'(sameSevenCharStartPredicate, description)'
p83
sg43
cdedupe.predicates
sameSevenCharStartPredicate
p84
sg16
g35
sbag0
(g37
g7
Ntp85
Rp86
(dp87
g41
S'(commonFourGram, description)'
p88
sg43
cdedupe.predicates
commonFourGram
p89
sg16
g35
sbag0
(g37
g7
Ntp90
Rp91
(dp92
g41
S'(commonSixGram, description)'
p93
sg43
cdedupe.predicates
commonSixGram
p94
sg16
g35
sbag0
(cdedupe.predicates
TfidfPredicate
p95
g7
Ntp96
Rp97
(dp98
S'threshold'
p99
F0.2
sg41
S'(0.2, description)'
p100
sg16
g35
sbag0
(g95
g7
Ntp101
Rp102
(dp103
g99
F0.4
sg41
S'(0.4, description)'
p104
sg16
g35
sbag0
(g95
g7
Ntp105
Rp106
(dp107
g99
F0.6
sg41
S'(0.6, description)'
p108
sg16
g35
sbag0
(g95
g7
Ntp109
Rp110
(dp111
g99
F0.8
sg41
S'(0.8, description)'
p112
sg16
g35
sbasbag0
(cdedupe.fieldclasses
StringType
p113
g7
Ntp114
Rp115
(dp116
g19
(lp117
g0
(g37
g7
Ntp118
Rp119
(dp120
g41
S'(wholeFieldPredicate, title)'
p121
sg43
g44
sg16
S'title'
p122
sbag0
(g37
g7
Ntp123
Rp124
(dp125
g41
S'(tokenFieldPredicate, title)'
p126
sg43
g49
sg16
g122
sbag0
(g37
g7
Ntp127
Rp128
(dp129
g41
S'(firstTokenPredicate, title)'
p130
sg43
g54
sg16
g122
sbag0
(g37
g7
Ntp131
Rp132
(dp133
g41
S'(commonIntegerPredicate, title)'
p134
sg43
g59
sg16
g122
sbag0
(g37
g7
Ntp135
Rp136
(dp137
g41
S'(nearIntegersPredicate, title)'
p138
sg43
g64
sg16
g122
sbag0
(g37
g7
Ntp139
Rp140
(dp141
g41
S'(firstIntegerPredicate, title)'
p142
sg43
g69
sg16
g122
sbag0
(g37
g7
Ntp143
Rp144
(dp145
g41
S'(sameThreeCharStartPredicate, title)'
p146
sg43
g74
sg16
g122
sbag0
(g37
g7
Ntp147
Rp148
(dp149
g41
S'(sameFiveCharStartPredicate, title)'
p150
sg43
g79
sg16
g122
sbag0
(g37
g7
Ntp151
Rp152
(dp153
g41
S'(sameSevenCharStartPredicate, title)'
p154
sg43
g84
sg16
g122
sbag0
(g37
g7
Ntp155
Rp156
(dp157
g41
S'(commonFourGram, title)'
p158
sg43
g89
sg16
g122
sbag0
(g37
g7
Ntp159
Rp160
(dp161
g41
S'(commonSixGram, title)'
p162
sg43
g94
sg16
g122
sbag0
(g95
g7
Ntp163
Rp164
(dp165
g99
F0.2
sg41
S'(0.2, title)'
p166
sg16
g122
sbag0
(g95
g7
Ntp167
Rp168
(dp169
g99
F0.4
sg41
S'(0.4, title)'
p170
sg16
g122
sbag0
(g95
g7
Ntp171
Rp172
(dp173
g99
F0.6
sg41
S'(0.6, title)'
p174
sg16
g122
sbag0
(g95
g7
Ntp175
Rp176
(dp177
g99
F0.8
sg41
S'(0.8, title)'
p178
sg16
g122
sbasg16
g122
sg11
S'(title: String)'
p179
sg15
F-4.588265895843506
sg18
I00
sbag0
(g113
g7
Ntp180
Rp181
(dp182
g19
(lp183
g0
(g37
g7
Ntp184
Rp185
(dp186
g41
S'(wholeFieldPredicate, manufacturer)'
p187
sg43
g44
sg16
S'manufacturer'
p188
sbag0
(g37
g7
Ntp189
Rp190
(dp191
g41
S'(tokenFieldPredicate, manufacturer)'
p192
sg43
g49
sg16
g188
sbag0
(g37
g7
Ntp193
Rp194
(dp195
g41
S'(firstTokenPredicate, manufacturer)'
p196
sg43
g54
sg16
g188
sbag0
(g37
g7
Ntp197
Rp198
(dp199
g41
S'(commonIntegerPredicate, manufacturer)'
p200
sg43
g59
sg16
g188
sbag0
(g37
g7
Ntp201
Rp202
(dp203
g41
S'(nearIntegersPredicate, manufacturer)'
p204
sg43
g64
sg16
g188
sbag0
(g37
g7
Ntp205
Rp206
(dp207
g41
S'(firstIntegerPredicate, manufacturer)'
p208
sg43
g69
sg16
g188
sbag0
(g37
g7
Ntp209
Rp210
(dp211
g41
S'(sameThreeCharStartPredicate, manufacturer)'
p212
sg43
g74
sg16
g188
sbag0
(g37
g7
Ntp213
Rp214
(dp215
g41
S'(sameFiveCharStartPredicate, manufacturer)'
p216
sg43
g79
sg16
g188
sbag0
(g37
g7
Ntp217
Rp218
(dp219
g41
S'(sameSevenCharStartPredicate, manufacturer)'
p220
sg43
g84
sg16
g188
sbag0
(g37
g7
Ntp221
Rp222
(dp223
g41
S'(commonFourGram, manufacturer)'
p224
sg43
g89
sg16
g188
sbag0
(g37
g7
Ntp225
Rp226
(dp227
g41
S'(commonSixGram, manufacturer)'
p228
sg43
g94
sg16
g188
sbag0
(g95
g7
Ntp229
Rp230
(dp231
g99
F0.2
sg41
S'(0.2, manufacturer)'
p232
sg16
g188
sbag0
(g95
g7
Ntp233
Rp234
(dp235
g99
F0.4
sg41
S'(0.4, manufacturer)'
p236
sg16
g188
sbag0
(g95
g7
Ntp237
Rp238
(dp239
g99
F0.6
sg41
S'(0.6, manufacturer)'
p240
sg16
g188
sbag0
(g95
g7
Ntp241
Rp242
(dp243
g99
F0.8
sg41
S'(0.8, manufacturer)'
p244
sg16
g188
sbasg16
g188
sg11
S'(manufacturer: String)'
p245
sg15
F-0.8417189121246338
sg18
I01
sbag0
(cdedupe.fieldclasses
MissingDataType
p246
g7
Ntp247
Rp248
(dp249
g18
I00
sg11
S'((manufacturer: String): Not Missing)'
p250
sg15
F0.6360783576965332
sbag0
(g246
g7
Ntp251
Rp252
(dp253
g18
I00
sg11
S'((price: Custom, priceComparator): Not Missing)'
p254
sg15
F-0.4619138836860657
sbag0
(g246
g7
Ntp255
Rp256
(dp257
g18
I00
sg11
S'((description: Text): Not Missing)'
p258
sg15
F0.07657933235168457
sbasS'bias'
p259
F0.6779027960747832
stp260
Rp261
(dp262
S'total_fields'
p263
I7
sb.(lp0
ccopy_reg
_reconstructor
p1
(cdedupe.predicates
CompoundPredicate
p2
c__builtin__
object
p3
Ntp4
Rp5
(dp6
S'predicates'
p7
(g1
(cdedupe.predicates
TfidfPredicate
p8
g3
Ntp9
Rp10
(dp11
S'threshold'
p12
F0.2
sS'__name__'
p13
S'(0.2, title)'
p14
sS'field'
p15
S'title'
p16
sbg1
(cdedupe.predicates
SimplePredicate
p17
g3
Ntp18
Rp19
(dp20
g13
S'(wholeFieldPredicate, title)'
p21
sS'func'
p22
cdedupe.predicates
wholeFieldPredicate
p23
sg15
g16
sbtp24
sg13
V(TfidfPredicate: (0.2, title), SimplePredicate: (wholeFieldPredicate, title))
p25
sbag1
(g2
g3
Ntp26
Rp27
(dp28
g7
(g1
(g17
g3
Ntp29
Rp30
(dp31
g13
S'(firstTokenPredicate, title)'
p32
sg22
cdedupe.predicates
firstTokenPredicate
p33
sg15
g16
sbg1
(g8
g3
Ntp34
Rp35
(dp36
g12
F0.8
sg13
S'(0.8, title)'
p37
sg15
g16
sbtp38
sg13
V(SimplePredicate: (firstTokenPredicate, title), TfidfPredicate: (0.8, title))
p39
sbag1
(g2
g3
Ntp40
Rp41
(dp42
g7
(g1
(g8
g3
Ntp43
Rp44
(dp45
g12
F0.6
sg13
S'(0.6, title)'
p46
sg15
g16
sbg1
(g17
g3
Ntp47
Rp48
(dp49
g13
S'(sameSevenCharStartPredicate, description)'
p50
sg22
cdedupe.predicates
sameSevenCharStartPredicate
p51
sg15
S'description'
p52
sbtp53
sg13
V(TfidfPredicate: (0.6, title), SimplePredicate: (sameSevenCharStartPredicate, description))
p54
sbag1
(g2
g3
Ntp55
Rp56
(dp57
g7
(g1
(g17
g3
Ntp58
Rp59
(dp60
g13
S'(commonIntegerPredicate, description)'
p61
sg22
cdedupe.predicates
commonIntegerPredicate
p62
sg15
g52
sbg44
tp63
sg13
V(SimplePredicate: (commonIntegerPredicate, description), TfidfPredicate: (0.6, title))
p64
sbag1
(g2
g3
Ntp65
Rp66
(dp67
g7
(g1
(g17
g3
Ntp68
Rp69
(dp70
g13
S'(sameSevenCharStartPredicate, title)'
p71
sg22
g51
sg15
g16
sbg1
(g17
g3
Ntp72
Rp73
(dp74
g13
S'(commonIntegerPredicate, title)'
p75
sg22
g62
sg15
g16
sbtp76
sg13
V(SimplePredicate: (sameSevenCharStartPredicate, title), SimplePredicate: (commonIntegerPredicate, title))
p77
sba.(dp0
S'title'
p1
c__builtin__
set
p2
((lp3
S'software'
p4
atp5
Rp6
sS'description'
p7
g2
((lp8
S'and'
p9
aS'a'
p10
aS'from'
p11
aS'for'
p12
aS'of'
p13
aS'is'
p14
aS'your'
p15
aS'the'
p16
aS'to'
p17
aS'in'
p18
aS'you'
p19
aS'with'
p20
aS'or'
p21
aS'software'
p22
atp23
Rp24
sS'manufacturer'
p25
g2
((lp26
tp27
Rp28
s.